target datalayout = "e-m:e-p270:32:32-p271:32:32-p272:64:64-i64:64-i128:128-f80:128-n8:16:32:64-S128"
target triple = "x86_64-pc-linux-gnu"

%struct.sctp_event_subscribe = type { i8, i8, i8, i8, i8, i8, i8, i8 }

@funcsLoaded = internal global i8 0, align 1
@.str.7 = private unnamed_addr constant [40 x i8] c"java/lang/UnsupportedOperationException\00", align 1
@.str.8 = private unnamed_addr constant [23 x i8] c"Protocol not supported\00", align 1
@.str.9 = private unnamed_addr constant [19 x i8] c"socket call failed\00", align 1
@.str.10 = private unnamed_addr constant [18 x i8] c"setsockopt failed\00", align 1
@nio_sctp_bindx = hidden global ptr null, align 8
@nio_sctp_getladdrs = hidden global ptr null, align 8
@nio_sctp_freeladdrs = hidden global ptr null, align 8
@nio_sctp_getpaddrs = hidden global ptr null, align 8
@nio_sctp_freepaddrs = hidden global ptr null, align 8
@nio_sctp_peeloff = hidden global ptr null, align 8
@nativeSctpLib = internal global ptr @.str.31, align 8
@.str.25 = private unnamed_addr constant [15 x i8] c"sctp_getladdrs\00", align 1
@.str.26 = private unnamed_addr constant [16 x i8] c"sctp_freeladdrs\00", align 1
@.str.27 = private unnamed_addr constant [15 x i8] c"sctp_getpaddrs\00", align 1
@.str.28 = private unnamed_addr constant [16 x i8] c"sctp_freepaddrs\00", align 1
@.str.29 = private unnamed_addr constant [11 x i8] c"sctp_bindx\00", align 1
@.str.30 = private unnamed_addr constant [13 x i8] c"sctp_peeloff\00", align 1

; Function Attrs: nounwind uwtable
define internal zeroext i8 @loadSocketExtensionFuncs(ptr noundef %0) #0 {
  %2 = alloca i8, align 1
  %3 = alloca ptr, align 8
  store ptr %0, ptr %3, align 8
  %4 = load ptr, ptr @nativeSctpLib, align 8
  %5 = call ptr @dlopen(ptr noundef %4, i32 noundef 257) #7
  %6 = icmp eq ptr %5, null
  br i1 %6, label %7, label %10

7:                                                ; preds = %1
  %8 = load ptr, ptr %3, align 8
  %9 = call ptr @dlerror() #7
  call void @JNU_ThrowByName(ptr noundef %8, ptr noundef @.str.7, ptr noundef %9)
  store i8 0, ptr %2, align 1
  br label %47

10:                                               ; preds = %1
  %11 = call ptr @dlsym(ptr noundef null, ptr noundef @.str.25) #7
  store ptr %11, ptr @nio_sctp_getladdrs, align 8
  %12 = icmp eq ptr %11, null
  br i1 %12, label %13, label %16

13:                                               ; preds = %10
  %14 = load ptr, ptr %3, align 8
  %15 = call ptr @dlerror() #7
  call void @JNU_ThrowByName(ptr noundef %14, ptr noundef @.str.7, ptr noundef %15)
  store i8 0, ptr %2, align 1
  br label %47

16:                                               ; preds = %10
  %17 = call ptr @dlsym(ptr noundef null, ptr noundef @.str.26) #7
  store ptr %17, ptr @nio_sctp_freeladdrs, align 8
  %18 = icmp eq ptr %17, null
  br i1 %18, label %19, label %22

19:                                               ; preds = %16
  %20 = load ptr, ptr %3, align 8
  %21 = call ptr @dlerror() #7
  call void @JNU_ThrowByName(ptr noundef %20, ptr noundef @.str.7, ptr noundef %21)
  store i8 0, ptr %2, align 1
  br label %47

22:                                               ; preds = %16
  %23 = call ptr @dlsym(ptr noundef null, ptr noundef @.str.27) #7
  store ptr %23, ptr @nio_sctp_getpaddrs, align 8
  %24 = icmp eq ptr %23, null
  br i1 %24, label %25, label %28

25:                                               ; preds = %22
  %26 = load ptr, ptr %3, align 8
  %27 = call ptr @dlerror() #7
  call void @JNU_ThrowByName(ptr noundef %26, ptr noundef @.str.7, ptr noundef %27)
  store i8 0, ptr %2, align 1
  br label %47

28:                                               ; preds = %22
  %29 = call ptr @dlsym(ptr noundef null, ptr noundef @.str.28) #7
  store ptr %29, ptr @nio_sctp_freepaddrs, align 8
  %30 = icmp eq ptr %29, null
  br i1 %30, label %31, label %34

31:                                               ; preds = %28
  %32 = load ptr, ptr %3, align 8
  %33 = call ptr @dlerror() #7
  call void @JNU_ThrowByName(ptr noundef %32, ptr noundef @.str.7, ptr noundef %33)
  store i8 0, ptr %2, align 1
  br label %47

34:                                               ; preds = %28
  %35 = call ptr @dlsym(ptr noundef null, ptr noundef @.str.29) #7
  store ptr %35, ptr @nio_sctp_bindx, align 8
  %36 = icmp eq ptr %35, null
  br i1 %36, label %37, label %40

37:                                               ; preds = %34
  %38 = load ptr, ptr %3, align 8
  %39 = call ptr @dlerror() #7
  call void @JNU_ThrowByName(ptr noundef %38, ptr noundef @.str.7, ptr noundef %39)
  store i8 0, ptr %2, align 1
  br label %47

40:                                               ; preds = %34
  %41 = call ptr @dlsym(ptr noundef null, ptr noundef @.str.30) #7
  store ptr %41, ptr @nio_sctp_peeloff, align 8
  %42 = icmp eq ptr %41, null
  br i1 %42, label %43, label %46

43:                                               ; preds = %40
  %44 = load ptr, ptr %3, align 8
  %45 = call ptr @dlerror() #7
  call void @JNU_ThrowByName(ptr noundef %44, ptr noundef @.str.7, ptr noundef %45)
  store i8 0, ptr %2, align 1
  br label %47

46:                                               ; preds = %40
  store i8 1, ptr @funcsLoaded, align 1
  store i8 1, ptr %2, align 1
  br label %47

47:                                               ; preds = %46, %43, %37, %31, %25, %19, %13, %7
  %48 = load i8, ptr %2, align 1
  ret i8 %48
}

; Function Attrs: nounwind uwtable
define i32 @Java_sun_nio_ch_sctp_SctpNet_socket0(ptr noundef %0, ptr noundef %1, i8 noundef zeroext %2) #0 {
  %4 = alloca i32, align 4
  %5 = alloca ptr, align 8
  %6 = alloca ptr, align 8
  %7 = alloca i8, align 1
  %8 = alloca i32, align 4
  %9 = alloca %struct.sctp_event_subscribe, align 1
  %10 = alloca i32, align 4
  store ptr %0, ptr %5, align 8
  store ptr %1, ptr %6, align 8
  store i8 %2, ptr %7, align 1
  %11 = call i32 (...) @ipv6_available()
  %12 = icmp ne i32 %11, 0
  %13 = select i1 %12, i32 10, i32 2
  store i32 %13, ptr %10, align 4
  %14 = load i8, ptr @funcsLoaded, align 1
  %15 = icmp ne i8 %14, 0
  br i1 %15, label %21, label %16

16:                                               ; preds = %3
  %17 = load ptr, ptr %5, align 8
  %18 = call zeroext i8 @loadSocketExtensionFuncs(ptr noundef %17)
  %19 = icmp ne i8 %18, 0
  br i1 %19, label %21, label %20

20:                                               ; preds = %16
  store i32 0, ptr %4, align 4
  br label %61

21:                                               ; preds = %16, %3
  %22 = load i32, ptr %10, align 4
  %23 = load i8, ptr %7, align 1
  %24 = zext i8 %23 to i32
  %25 = icmp ne i32 %24, 0
  %26 = select i1 %25, i32 1, i32 5
  %27 = call i32 @socket(i32 noundef %22, i32 noundef %26, i32 noundef 132) #7
  store i32 %27, ptr %8, align 4
  %28 = load i32, ptr %8, align 4
  %29 = icmp slt i32 %28, 0
  br i1 %29, label %30, label %45

30:                                               ; preds = %21
  %31 = call ptr @__errno_location() #6
  %32 = load i32, ptr %31, align 4
  %33 = icmp eq i32 %32, 93
  br i1 %33, label %38, label %34

34:                                               ; preds = %30
  %35 = call ptr @__errno_location() #6
  %36 = load i32, ptr %35, align 4
  %37 = icmp eq i32 %36, 94
  br i1 %37, label %38, label %40

38:                                               ; preds = %34, %30
  %39 = load ptr, ptr %5, align 8
  call void @JNU_ThrowByNameWithLastError(ptr noundef %39, ptr noundef @.str.7, ptr noundef @.str.8)
  store i32 -5, ptr %4, align 4
  br label %61

40:                                               ; preds = %34
  %41 = load ptr, ptr %5, align 8
  %42 = call ptr @__errno_location() #6
  %43 = load i32, ptr %42, align 4
  %44 = call i32 @sctpHandleSocketErrorWithMessage(ptr noundef %41, i32 noundef %43, ptr noundef @.str.9)
  store i32 %44, ptr %4, align 4
  br label %61

45:                                               ; preds = %21
  call void @llvm.memset.p0.i64(ptr align 1 %9, i8 0, i64 8, i1 false)
  %46 = getelementptr inbounds %struct.sctp_event_subscribe, ptr %9, i32 0, i32 0
  store i8 1, ptr %46, align 1
  %47 = getelementptr inbounds %struct.sctp_event_subscribe, ptr %9, i32 0, i32 1
  store i8 1, ptr %47, align 1
  %48 = getelementptr inbounds %struct.sctp_event_subscribe, ptr %9, i32 0, i32 2
  store i8 1, ptr %48, align 1
  %49 = getelementptr inbounds %struct.sctp_event_subscribe, ptr %9, i32 0, i32 3
  store i8 1, ptr %49, align 1
  %50 = getelementptr inbounds %struct.sctp_event_subscribe, ptr %9, i32 0, i32 5
  store i8 1, ptr %50, align 1
  %51 = load i32, ptr %8, align 4
  %52 = call i32 @setsockopt(i32 noundef %51, i32 noundef 132, i32 noundef 11, ptr noundef %9, i32 noundef 8) #7
  %53 = icmp ne i32 %52, 0
  br i1 %53, label %54, label %59

54:                                               ; preds = %45
  %55 = load ptr, ptr %5, align 8
  %56 = call ptr @__errno_location() #6
  %57 = load i32, ptr %56, align 4
  %58 = call i32 @sctpHandleSocketErrorWithMessage(ptr noundef %55, i32 noundef %57, ptr noundef @.str.10)
  br label %59

59:                                               ; preds = %54, %45
  %60 = load i32, ptr %8, align 4
  store i32 %60, ptr %4, align 4
  br label %61

61:                                               ; preds = %59, %40, %38, %20
  %62 = load i32, ptr %4, align 4
  ret i32 %62
}