; Function Attrs: nounwind uwtable
define range(i32 -5, -2147483648) i32 @Java_sun_nio_ch_sctp_SctpNet_socket0(ptr noundef %0, ptr nocapture noundef readnone %1, i8 noundef zeroext %2) local_unnamed_addr #1 {
  %4 = alloca %struct.sctp_event_subscribe, align 8
  %5 = tail call i32 (...) @ipv6_available() #10
  %.not = icmp eq i32 %5, 0
  %6 = select i1 %.not, i32 2, i32 10
  %.b = load i1, ptr @funcsLoaded, align 1
  br i1 %.b, label %42, label %7

7:                                                ; preds = %3
  %8 = tail call ptr @dlopen(ptr noundef nonnull @.str.31, i32 noundef 257) #10
  %9 = icmp eq ptr %8, null
  br i1 %9, label %10, label %12

10:                                               ; preds = %7
  %11 = tail call ptr @dlerror() #10
  tail call void @JNU_ThrowByName(ptr noundef %0, ptr noundef nonnull @.str.7, ptr noundef %11) #10
  br label %loadSocketExtensionFuncs.exit.thread

12:                                               ; preds = %7
  %13 = tail call ptr @dlsym(ptr noundef null, ptr noundef nonnull @.str.25) #10
  store ptr %13, ptr @nio_sctp_getladdrs, align 8
  %14 = icmp eq ptr %13, null
  br i1 %14, label %15, label %17

15:                                               ; preds = %12
  %16 = tail call ptr @dlerror() #10
  tail call void @JNU_ThrowByName(ptr noundef %0, ptr noundef nonnull @.str.7, ptr noundef %16) #10
  br label %loadSocketExtensionFuncs.exit.thread

17:                                               ; preds = %12
  %18 = tail call ptr @dlsym(ptr noundef null, ptr noundef nonnull @.str.26) #10
  store ptr %18, ptr @nio_sctp_freeladdrs, align 8
  %19 = icmp eq ptr %18, null
  br i1 %19, label %20, label %22

20:                                               ; preds = %17
  %21 = tail call ptr @dlerror() #10
  tail call void @JNU_ThrowByName(ptr noundef %0, ptr noundef nonnull @.str.7, ptr noundef %21) #10
  br label %loadSocketExtensionFuncs.exit.thread

22:                                               ; preds = %17
  %23 = tail call ptr @dlsym(ptr noundef null, ptr noundef nonnull @.str.27) #10
  store ptr %23, ptr @nio_sctp_getpaddrs, align 8
  %24 = icmp eq ptr %23, null
  br i1 %24, label %25, label %27

25:                                               ; preds = %22
  %26 = tail call ptr @dlerror() #10
  tail call void @JNU_ThrowByName(ptr noundef %0, ptr noundef nonnull @.str.7, ptr noundef %26) #10
  br label %loadSocketExtensionFuncs.exit.thread

27:                                               ; preds = %22
  %28 = tail call ptr @dlsym(ptr noundef null, ptr noundef nonnull @.str.28) #10
  store ptr %28, ptr @nio_sctp_freepaddrs, align 8
  %29 = icmp eq ptr %28, null
  br i1 %29, label %30, label %32

30:                                               ; preds = %27
  %31 = tail call ptr @dlerror() #10
  tail call void @JNU_ThrowByName(ptr noundef %0, ptr noundef nonnull @.str.7, ptr noundef %31) #10
  br label %loadSocketExtensionFuncs.exit.thread

32:                                               ; preds = %27
  %33 = tail call ptr @dlsym(ptr noundef null, ptr noundef nonnull @.str.29) #10
  store ptr %33, ptr @nio_sctp_bindx, align 8
  %34 = icmp eq ptr %33, null
  br i1 %34, label %35, label %37

35:                                               ; preds = %32
  %36 = tail call ptr @dlerror() #10
  tail call void @JNU_ThrowByName(ptr noundef %0, ptr noundef nonnull @.str.7, ptr noundef %36) #10
  br label %loadSocketExtensionFuncs.exit.thread

37:                                               ; preds = %32
  %38 = tail call ptr @dlsym(ptr noundef null, ptr noundef nonnull @.str.30) #10
  store ptr %38, ptr @nio_sctp_peeloff, align 8
  %39 = icmp eq ptr %38, null
  br i1 %39, label %40, label %loadSocketExtensionFuncs.exit

40:                                               ; preds = %37
  %41 = tail call ptr @dlerror() #10
  tail call void @JNU_ThrowByName(ptr noundef %0, ptr noundef nonnull @.str.7, ptr noundef %41) #10
  br label %loadSocketExtensionFuncs.exit.thread

loadSocketExtensionFuncs.exit:                    ; preds = %37
  store i1 true, ptr @funcsLoaded, align 1
  br label %42

42:                                               ; preds = %loadSocketExtensionFuncs.exit, %3
  %.not12 = icmp eq i8 %2, 0
  %43 = select i1 %.not12, i32 5, i32 1
  %44 = tail call i32 @socket(i32 noundef %6, i32 noundef %43, i32 noundef 132) #10
  %45 = icmp slt i32 %44, 0
  br i1 %45, label %46, label %52

46:                                               ; preds = %42
  %47 = tail call ptr @__errno_location() #9
  %48 = load i32, ptr %47, align 4
  %.off = add i32 %48, -93
  %switch = icmp ult i32 %.off, 2
  br i1 %switch, label %49, label %50

49:                                               ; preds = %46
  tail call void @JNU_ThrowByNameWithLastError(ptr noundef %0, ptr noundef nonnull @.str.7, ptr noundef nonnull @.str.8) #10
  br label %loadSocketExtensionFuncs.exit.thread

50:                                               ; preds = %46
  %51 = tail call i32 @sctpHandleSocketErrorWithMessage(ptr noundef %0, i32 noundef %48, ptr noundef nonnull @.str.9)
  br label %loadSocketExtensionFuncs.exit.thread

52:                                               ; preds = %42
  store i64 1099511627776, ptr %4, align 8
  store i32 16843009, ptr %4, align 8
  %53 = call i32 @setsockopt(i32 noundef %44, i32 noundef 132, i32 noundef 11, ptr noundef nonnull %4, i32 noundef 8) #10
  %.not13 = icmp eq i32 %53, 0
  br i1 %.not13, label %loadSocketExtensionFuncs.exit.thread, label %54

54:                                               ; preds = %52
  %55 = tail call ptr @__errno_location() #9
  %56 = load i32, ptr %55, align 4
  %57 = call i32 @sctpHandleSocketErrorWithMessage(ptr noundef %0, i32 noundef %56, ptr noundef nonnull @.str.10)
  br label %loadSocketExtensionFuncs.exit.thread

loadSocketExtensionFuncs.exit.thread:             ; preds = %40, %35, %30, %25, %20, %15, %10, %52, %54, %50, %49
  %.0 = phi i32 [ -5, %49 ], [ %51, %50 ], [ %44, %54 ], [ %44, %52 ], [ 0, %10 ], [ 0, %15 ], [ 0, %20 ], [ 0, %25 ], [ 0, %30 ], [ 0, %35 ], [ 0, %40 ]
  ret i32 %.0
}